
/Users/yanghyeonseo/Developer/pvz/pvz/main.exe:	file format coff-i386

Disassembly of section .text:

00401000 <.text>:
  441da0: 00 00                        	add	byte ptr [eax], al
  441da2: 8b c6                        	mov	eax, esi
  441da4: 5e                           	pop	esi
  441da5: 5b                           	pop	ebx
  441da6: c2 08 00                     	ret	0x8
  441da9: 8d 46 04                     	lea	eax, [esi + 0x4]
  441dac: 5f                           	pop	edi
  441dad: c6 00 00                     	mov	byte ptr [eax], 0x0
  441db0: 8b c6                        	mov	eax, esi
  441db2: 5e                           	pop	esi
  441db3: 5b                           	pop	ebx
  441db4: c2 08 00                     	ret	0x8
  441db7: 8d 46 04                     	lea	eax, [esi + 0x4]
  441dba: c6 04 38 00                  	mov	byte ptr [eax + edi], 0x0
  441dbe: 5f                           	pop	edi
  441dbf: 8b c6                        	mov	eax, esi
  441dc1: 5e                           	pop	esi
  441dc2: 5b                           	pop	ebx
  441dc3: c2 08 00                     	ret	0x8
  441dc6: cc                           	int3
  441dc7: cc                           	int3
  441dc8: cc                           	int3
  441dc9: cc                           	int3
  441dca: cc                           	int3
  441dcb: cc                           	int3
  441dcc: cc                           	int3
  441dcd: cc                           	int3
  441dce: cc                           	int3
  441dcf: cc                           	int3
  441dd0: 8b 44 24 08                  	mov	eax, dword ptr [esp + 0x8]
  441dd4: 83 f8 01                     	cmp	eax, 0x1
  441dd7: 75 28                        	jne	0x441e01 <.text+0x40e01>
  441dd9: 83 79 18 10                  	cmp	dword ptr [ecx + 0x18], 0x10
  441ddd: 72 11                        	jb	0x441df0 <.text+0x40df0>
  441ddf: 8b 49 04                     	mov	ecx, dword ptr [ecx + 0x4]
  441de2: 8a 44 24 0c                  	mov	al, byte ptr [esp + 0xc]
  441de6: 8b 54 24 04                  	mov	edx, dword ptr [esp + 0x4]
  441dea: 88 04 11                     	mov	byte ptr [ecx + edx], al
  441ded: c2 0c 00                     	ret	0xc
  441df0: 8a 44 24 0c                  	mov	al, byte ptr [esp + 0xc]
  441df4: 8b 54 24 04                  	mov	edx, dword ptr [esp + 0x4]
  441df8: 83 c1 04                     	add	ecx, 0x4
  441dfb: 88 04 11                     	mov	byte ptr [ecx + edx], al
  441dfe: c2 0c 00                     	ret	0xc
  441e01: 83 79 18 10                  	cmp	dword ptr [ecx + 0x18], 0x10
  441e05: 72 05                        	jb	0x441e0c <.text+0x40e0c>
  441e07: 8b 49 04                     	mov	ecx, dword ptr [ecx + 0x4]
  441e0a: eb 03                        	jmp	0x441e0f <.text+0x40e0f>
  441e0c: 83 c1 04                     	add	ecx, 0x4
  441e0f: 8b 54 24 04                  	mov	edx, dword ptr [esp + 0x4]
  441e13: 50                           	push	eax
  441e14: 0f be 44 24 10               	movsx	eax, byte ptr [esp + 0x10]
  441e19: 50                           	push	eax
  441e1a: 03 ca                        	add	ecx, edx
  441e1c: 51                           	push	ecx
  441e1d: e8 fe 41 1e 00               	call	0x626020 <.text+0x225020>
  441e22: 83 c4 0c                     	add	esp, 0xc
  441e25: c2 0c 00                     	ret	0xc
  441e28: cc                           	int3
  441e29: cc                           	int3
  441e2a: cc                           	int3
  441e2b: cc                           	int3
  441e2c: cc                           	int3
  441e2d: cc                           	int3
  441e2e: cc                           	int3
  441e2f: cc                           	int3
  441e30: 56                           	push	esi
  441e31: 8b f1                        	mov	esi, ecx
  441e33: e8 78 01 00 00               	call	0x441fb0 <.text+0x40fb0>
  441e38: f6 44 24 08 01               	test	byte ptr [esp + 0x8], 0x1
  441e3d: 74 09                        	je	0x441e48 <.text+0x40e48>
  441e3f: 56                           	push	esi
